; ModuleID = '9/1240.c'
source_filename = "9/1240.c"
target datalayout = "e-m:e-p270:32:32-p271:32:32-p272:64:64-i64:64-f80:128-n8:16:32:64-S128"
target triple = "x86_64-pc-linux-gnu"

%struct.patient = type { [10 x i8], i32 }

@.str = private unnamed_addr constant [3 x i8] c"%d\00", align 1
@.str.1 = private unnamed_addr constant [5 x i8] c"%s%d\00", align 1
@.str.2 = private unnamed_addr constant [4 x i8] c"%s\0A\00", align 1

; Function Attrs: noinline nounwind uwtable
define dso_local i32 @main(i32 %0, i8** %1) #0 {
  %3 = alloca i32, align 4
  %4 = alloca i32, align 4
  %5 = alloca i8**, align 8
  %6 = alloca [100 x %struct.patient], align 16
  %7 = alloca [100 x %struct.patient], align 16
  %8 = alloca i32, align 4
  %9 = alloca i32, align 4
  %10 = alloca i32, align 4
  %11 = alloca i32, align 4
  %12 = alloca i32, align 4
  %13 = alloca [10 x i8], align 1
  store i32 0, i32* %3, align 4
  store i32 %0, i32* %4, align 4
  store i8** %1, i8*** %5, align 8
  store i32 0, i32* %11, align 4
  %14 = call i32 (i8*, ...) @__isoc99_scanf(i8* getelementptr inbounds ([3 x i8], [3 x i8]* @.str, i64 0, i64 0), i32* %8)
  store i32 0, i32* %9, align 4
  br label %15

15:                                               ; preds = %60, %2
  %16 = load i32, i32* %9, align 4
  %17 = load i32, i32* %8, align 4
  %18 = icmp slt i32 %16, %17
  br i1 %18, label %19, label %63

19:                                               ; preds = %15
  %20 = load i32, i32* %9, align 4
  %21 = sext i32 %20 to i64
  %22 = getelementptr inbounds [100 x %struct.patient], [100 x %struct.patient]* %6, i64 0, i64 %21
  %23 = getelementptr inbounds %struct.patient, %struct.patient* %22, i32 0, i32 0
  %24 = getelementptr inbounds [10 x i8], [10 x i8]* %23, i64 0, i64 0
  %25 = load i32, i32* %9, align 4
  %26 = sext i32 %25 to i64
  %27 = getelementptr inbounds [100 x %struct.patient], [100 x %struct.patient]* %6, i64 0, i64 %26
  %28 = getelementptr inbounds %struct.patient, %struct.patient* %27, i32 0, i32 1
  %29 = call i32 (i8*, ...) @__isoc99_scanf(i8* getelementptr inbounds ([5 x i8], [5 x i8]* @.str.1, i64 0, i64 0), i8* %24, i32* %28)
  %30 = load i32, i32* %9, align 4
  %31 = sext i32 %30 to i64
  %32 = getelementptr inbounds [100 x %struct.patient], [100 x %struct.patient]* %6, i64 0, i64 %31
  %33 = getelementptr inbounds %struct.patient, %struct.patient* %32, i32 0, i32 1
  %34 = load i32, i32* %33, align 4
  %35 = icmp sge i32 %34, 60
  br i1 %35, label %36, label %59

36:                                               ; preds = %19
  %37 = load i32, i32* %11, align 4
  %38 = sext i32 %37 to i64
  %39 = getelementptr inbounds [100 x %struct.patient], [100 x %struct.patient]* %7, i64 0, i64 %38
  %40 = getelementptr inbounds %struct.patient, %struct.patient* %39, i32 0, i32 0
  %41 = getelementptr inbounds [10 x i8], [10 x i8]* %40, i64 0, i64 0
  %42 = load i32, i32* %9, align 4
  %43 = sext i32 %42 to i64
  %44 = getelementptr inbounds [100 x %struct.patient], [100 x %struct.patient]* %6, i64 0, i64 %43
  %45 = getelementptr inbounds %struct.patient, %struct.patient* %44, i32 0, i32 0
  %46 = getelementptr inbounds [10 x i8], [10 x i8]* %45, i64 0, i64 0
  %47 = call i8* @strcpy(i8* %41, i8* %46) #3
  %48 = load i32, i32* %9, align 4
  %49 = sext i32 %48 to i64
  %50 = getelementptr inbounds [100 x %struct.patient], [100 x %struct.patient]* %6, i64 0, i64 %49
  %51 = getelementptr inbounds %struct.patient, %struct.patient* %50, i32 0, i32 1
  %52 = load i32, i32* %51, align 4
  %53 = load i32, i32* %11, align 4
  %54 = sext i32 %53 to i64
  %55 = getelementptr inbounds [100 x %struct.patient], [100 x %struct.patient]* %7, i64 0, i64 %54
  %56 = getelementptr inbounds %struct.patient, %struct.patient* %55, i32 0, i32 1
  store i32 %52, i32* %56, align 4
  %57 = load i32, i32* %11, align 4
  %58 = add nsw i32 %57, 1
  store i32 %58, i32* %11, align 4
  br label %59

59:                                               ; preds = %36, %19
  br label %60

60:                                               ; preds = %59
  %61 = load i32, i32* %9, align 4
  %62 = add nsw i32 %61, 1
  store i32 %62, i32* %9, align 4
  br label %15

63:                                               ; preds = %15
  store i32 0, i32* %9, align 4
  br label %64

64:                                               ; preds = %144, %63
  %65 = load i32, i32* %9, align 4
  %66 = load i32, i32* %11, align 4
  %67 = sub nsw i32 %66, 1
  %68 = icmp slt i32 %65, %67
  br i1 %68, label %69, label %147

69:                                               ; preds = %64
  store i32 0, i32* %10, align 4
  br label %70

70:                                               ; preds = %140, %69
  %71 = load i32, i32* %10, align 4
  %72 = load i32, i32* %11, align 4
  %73 = sub nsw i32 %72, 1
  %74 = load i32, i32* %9, align 4
  %75 = sub nsw i32 %73, %74
  %76 = icmp slt i32 %71, %75
  br i1 %76, label %77, label %143

77:                                               ; preds = %70
  %78 = load i32, i32* %10, align 4
  %79 = sext i32 %78 to i64
  %80 = getelementptr inbounds [100 x %struct.patient], [100 x %struct.patient]* %7, i64 0, i64 %79
  %81 = getelementptr inbounds %struct.patient, %struct.patient* %80, i32 0, i32 1
  %82 = load i32, i32* %81, align 4
  %83 = load i32, i32* %10, align 4
  %84 = add nsw i32 %83, 1
  %85 = sext i32 %84 to i64
  %86 = getelementptr inbounds [100 x %struct.patient], [100 x %struct.patient]* %7, i64 0, i64 %85
  %87 = getelementptr inbounds %struct.patient, %struct.patient* %86, i32 0, i32 1
  %88 = load i32, i32* %87, align 4
  %89 = icmp slt i32 %82, %88
  br i1 %89, label %90, label %139

90:                                               ; preds = %77
  %91 = load i32, i32* %10, align 4
  %92 = sext i32 %91 to i64
  %93 = getelementptr inbounds [100 x %struct.patient], [100 x %struct.patient]* %7, i64 0, i64 %92
  %94 = getelementptr inbounds %struct.patient, %struct.patient* %93, i32 0, i32 1
  %95 = load i32, i32* %94, align 4
  store i32 %95, i32* %12, align 4
  %96 = load i32, i32* %10, align 4
  %97 = add nsw i32 %96, 1
  %98 = sext i32 %97 to i64
  %99 = getelementptr inbounds [100 x %struct.patient], [100 x %struct.patient]* %7, i64 0, i64 %98
  %100 = getelementptr inbounds %struct.patient, %struct.patient* %99, i32 0, i32 1
  %101 = load i32, i32* %100, align 4
  %102 = load i32, i32* %10, align 4
  %103 = sext i32 %102 to i64
  %104 = getelementptr inbounds [100 x %struct.patient], [100 x %struct.patient]* %7, i64 0, i64 %103
  %105 = getelementptr inbounds %struct.patient, %struct.patient* %104, i32 0, i32 1
  store i32 %101, i32* %105, align 4
  %106 = load i32, i32* %12, align 4
  %107 = load i32, i32* %10, align 4
  %108 = add nsw i32 %107, 1
  %109 = sext i32 %108 to i64
  %110 = getelementptr inbounds [100 x %struct.patient], [100 x %struct.patient]* %7, i64 0, i64 %109
  %111 = getelementptr inbounds %struct.patient, %struct.patient* %110, i32 0, i32 1
  store i32 %106, i32* %111, align 4
  %112 = getelementptr inbounds [10 x i8], [10 x i8]* %13, i64 0, i64 0
  %113 = load i32, i32* %10, align 4
  %114 = sext i32 %113 to i64
  %115 = getelementptr inbounds [100 x %struct.patient], [100 x %struct.patient]* %7, i64 0, i64 %114
  %116 = getelementptr inbounds %struct.patient, %struct.patient* %115, i32 0, i32 0
  %117 = getelementptr inbounds [10 x i8], [10 x i8]* %116, i64 0, i64 0
  %118 = call i8* @strcpy(i8* %112, i8* %117) #3
  %119 = load i32, i32* %10, align 4
  %120 = sext i32 %119 to i64
  %121 = getelementptr inbounds [100 x %struct.patient], [100 x %struct.patient]* %7, i64 0, i64 %120
  %122 = getelementptr inbounds %struct.patient, %struct.patient* %121, i32 0, i32 0
  %123 = getelementptr inbounds [10 x i8], [10 x i8]* %122, i64 0, i64 0
  %124 = load i32, i32* %10, align 4
  %125 = add nsw i32 %124, 1
  %126 = sext i32 %125 to i64
  %127 = getelementptr inbounds [100 x %struct.patient], [100 x %struct.patient]* %7, i64 0, i64 %126
  %128 = getelementptr inbounds %struct.patient, %struct.patient* %127, i32 0, i32 0
  %129 = getelementptr inbounds [10 x i8], [10 x i8]* %128, i64 0, i64 0
  %130 = call i8* @strcpy(i8* %123, i8* %129) #3
  %131 = load i32, i32* %10, align 4
  %132 = add nsw i32 %131, 1
  %133 = sext i32 %132 to i64
  %134 = getelementptr inbounds [100 x %struct.patient], [100 x %struct.patient]* %7, i64 0, i64 %133
  %135 = getelementptr inbounds %struct.patient, %struct.patient* %134, i32 0, i32 0
  %136 = getelementptr inbounds [10 x i8], [10 x i8]* %135, i64 0, i64 0
  %137 = getelementptr inbounds [10 x i8], [10 x i8]* %13, i64 0, i64 0
  %138 = call i8* @strcpy(i8* %136, i8* %137) #3
  br label %139

139:                                              ; preds = %90, %77
  br label %140

140:                                              ; preds = %139
  %141 = load i32, i32* %10, align 4
  %142 = add nsw i32 %141, 1
  store i32 %142, i32* %10, align 4
  br label %70

143:                                              ; preds = %70
  br label %144

144:                                              ; preds = %143
  %145 = load i32, i32* %9, align 4
  %146 = add nsw i32 %145, 1
  store i32 %146, i32* %9, align 4
  br label %64

147:                                              ; preds = %64
  store i32 0, i32* %9, align 4
  br label %148

148:                                              ; preds = %159, %147
  %149 = load i32, i32* %9, align 4
  %150 = load i32, i32* %11, align 4
  %151 = icmp slt i32 %149, %150
  br i1 %151, label %152, label %162

152:                                              ; preds = %148
  %153 = load i32, i32* %9, align 4
  %154 = sext i32 %153 to i64
  %155 = getelementptr inbounds [100 x %struct.patient], [100 x %struct.patient]* %7, i64 0, i64 %154
  %156 = getelementptr inbounds %struct.patient, %struct.patient* %155, i32 0, i32 0
  %157 = getelementptr inbounds [10 x i8], [10 x i8]* %156, i64 0, i64 0
  %158 = call i32 (i8*, ...) @printf(i8* getelementptr inbounds ([4 x i8], [4 x i8]* @.str.2, i64 0, i64 0), i8* %157)
  br label %159

159:                                              ; preds = %152
  %160 = load i32, i32* %9, align 4
  %161 = add nsw i32 %160, 1
  store i32 %161, i32* %9, align 4
  br label %148

162:                                              ; preds = %148
  store i32 0, i32* %9, align 4
  br label %163

163:                                              ; preds = %182, %162
  %164 = load i32, i32* %9, align 4
  %165 = load i32, i32* %8, align 4
  %166 = icmp slt i32 %164, %165
  br i1 %166, label %167, label %185

167:                                              ; preds = %163
  %168 = load i32, i32* %9, align 4
  %169 = sext i32 %168 to i64
  %170 = getelementptr inbounds [100 x %struct.patient], [100 x %struct.patient]* %6, i64 0, i64 %169
  %171 = getelementptr inbounds %struct.patient, %struct.patient* %170, i32 0, i32 1
  %172 = load i32, i32* %171, align 4
  %173 = icmp slt i32 %172, 60
  br i1 %173, label %174, label %181

174:                                              ; preds = %167
  %175 = load i32, i32* %9, align 4
  %176 = sext i32 %175 to i64
  %177 = getelementptr inbounds [100 x %struct.patient], [100 x %struct.patient]* %6, i64 0, i64 %176
  %178 = getelementptr inbounds %struct.patient, %struct.patient* %177, i32 0, i32 0
  %179 = getelementptr inbounds [10 x i8], [10 x i8]* %178, i64 0, i64 0
  %180 = call i32 (i8*, ...) @printf(i8* getelementptr inbounds ([4 x i8], [4 x i8]* @.str.2, i64 0, i64 0), i8* %179)
  br label %181

181:                                              ; preds = %174, %167
  br label %182

182:                                              ; preds = %181
  %183 = load i32, i32* %9, align 4
  %184 = add nsw i32 %183, 1
  store i32 %184, i32* %9, align 4
  br label %163

185:                                              ; preds = %163
  ret i32 0
}

declare dso_local i32 @__isoc99_scanf(i8*, ...) #1

; Function Attrs: nounwind
declare dso_local i8* @strcpy(i8*, i8*) #2

declare dso_local i32 @printf(i8*, ...) #1


!llvm.module.flags = !{!0}
!llvm.ident = !{!1}

!0 = !{i32 1, !"wchar_size", i32 4}
!1 = !{!"clang version 10.0.0-4ubuntu1 "}
